target datalayout = "e-m:e-p270:32:32-p271:32:32-p272:64:64-i64:64-i128:128-f80:128-n8:16:32:64-S128"
target triple = "x86_64-pc-linux-gnu"

%struct._object = type { %union.anon, ptr }
%union.anon = type { i64 }
%struct._err_stackitem = type { ptr, ptr }
%union._PyStackRef = type { i64 }
%struct._PyInterpreterFrame = type { %union._PyStackRef, ptr, %union._PyStackRef, ptr, ptr, ptr, ptr, ptr, ptr, i16, i8, i8, [1 x %union._PyStackRef] }
%struct._PyAsyncGenObject = type { %struct._object, ptr, ptr, ptr, %struct._err_stackitem, ptr, i8, i8, i8, i8, %struct._PyInterpreterFrame }

; Function Attrs: nounwind uwtable
define dso_local ptr @PyAsyncGen_New(ptr noundef %0, ptr noundef %1, ptr noundef %2) #0 {
  %4 = alloca ptr, align 8
  %5 = alloca ptr, align 8
  %6 = alloca ptr, align 8
  %7 = alloca ptr, align 8
  %8 = alloca ptr, align 8
  %9 = alloca i32, align 4
  store ptr %0, ptr %5, align 8, !tbaa !77
  store ptr %1, ptr %6, align 8, !tbaa !11
  store ptr %2, ptr %7, align 8, !tbaa !11
  call void @llvm.lifetime.start.p0(i64 8, ptr %8) #7
  %10 = load ptr, ptr %5, align 8, !tbaa !77
  %11 = load ptr, ptr %6, align 8, !tbaa !11
  %12 = load ptr, ptr %7, align 8, !tbaa !11
  %13 = call ptr @gen_new_with_qualname(ptr noundef @PyAsyncGen_Type, ptr noundef %10, ptr noundef %11, ptr noundef %12)
  store ptr %13, ptr %8, align 8, !tbaa !27
  %14 = load ptr, ptr %8, align 8, !tbaa !27
  %15 = icmp eq ptr %14, null
  br i1 %15, label %16, label %17

16:                                               ; preds = %3
  store ptr null, ptr %4, align 8
  store i32 1, ptr %9, align 4
  br label %27

17:                                               ; preds = %3
  %18 = load ptr, ptr %8, align 8, !tbaa !27
  %19 = getelementptr inbounds nuw %struct._PyAsyncGenObject, ptr %18, i32 0, i32 5
  store ptr null, ptr %19, align 8, !tbaa !29
  %20 = load ptr, ptr %8, align 8, !tbaa !27
  %21 = getelementptr inbounds nuw %struct._PyAsyncGenObject, ptr %20, i32 0, i32 7
  store i8 0, ptr %21, align 1, !tbaa !31
  %22 = load ptr, ptr %8, align 8, !tbaa !27
  %23 = getelementptr inbounds nuw %struct._PyAsyncGenObject, ptr %22, i32 0, i32 6
  store i8 0, ptr %23, align 8, !tbaa !55
  %24 = load ptr, ptr %8, align 8, !tbaa !27
  %25 = getelementptr inbounds nuw %struct._PyAsyncGenObject, ptr %24, i32 0, i32 8
  store i8 0, ptr %25, align 2, !tbaa !56
  %26 = load ptr, ptr %8, align 8, !tbaa !27
  store ptr %26, ptr %4, align 8
  store i32 1, ptr %9, align 4
  br label %27

27:                                               ; preds = %17, %16
  call void @llvm.lifetime.end.p0(i64 8, ptr %8) #7
  %28 = load ptr, ptr %4, align 8
  ret ptr %28
}