; Function Attrs: nounwind uwtable
define dso_local ptr @PyAsyncGen_New(ptr noundef %0, ptr noundef %1, ptr noundef %2) local_unnamed_addr #2 {
  %4 = tail call fastcc ptr @gen_new_with_qualname(ptr noundef nonnull @PyAsyncGen_Type, ptr noundef %0, ptr noundef %1, ptr noundef %2)
  %5 = icmp eq ptr %4, null
  br i1 %5, label %8, label %6

6:                                                ; preds = %3
  %7 = getelementptr inbounds nuw i8, ptr %4, i64 56
  tail call void @llvm.memset.p0.i64(ptr noundef nonnull align 8 dereferenceable(11) %7, i8 0, i64 11, i1 false)
  br label %8

8:                                                ; preds = %3, %6
  ret ptr %4
}